; Function Attrs: mustprogress uwtable
define void @grpc_slice_new_with_user_data(ptr dead_on_unwind noalias writable writeonly sret(%struct.grpc_slice) align 8 captures(none) initializes((0, 24)) %0, ptr noundef %1, i64 noundef %2, ptr noundef %3, ptr noundef %4) local_unnamed_addr #3 personality ptr @__gxx_personality_v0 {
  %6 = tail call noalias noundef nonnull dereferenceable(32) ptr @_Znwm(i64 noundef 32) #28
  store i64 1, ptr %6, align 8, !tbaa !20
  %7 = getelementptr inbounds nuw i8, ptr %6, i64 8
  store ptr @_ZN9grpc_core16NewSliceRefcount7DestroyEP19grpc_slice_refcount, ptr %7, align 8, !tbaa !23
  %8 = getelementptr inbounds nuw i8, ptr %6, i64 16
  store ptr %3, ptr %8, align 8, !tbaa !33
  %9 = getelementptr inbounds nuw i8, ptr %6, i64 24
  store ptr %4, ptr %9, align 8, !tbaa !35
  store ptr %6, ptr %0, align 8, !tbaa !3
  %10 = getelementptr inbounds nuw i8, ptr %0, i64 8
  %11 = getelementptr inbounds nuw i8, ptr %0, i64 16
  store ptr %1, ptr %11, align 8, !tbaa !9
  store i64 %2, ptr %10, align 8, !tbaa !9
  ret void
}